target datalayout = "e-m:e-p270:32:32-p271:32:32-p272:64:64-i64:64-i128:128-f80:128-n8:16:32:64-S128"
target triple = "x86_64-pc-linux-gnu"

@.str.1 = private unnamed_addr constant [101 x i8] c"generated/home/dtcxzyw/WorkSpace/Projects/compilers/llvm-opt-benchmark/bench/hdf5/hdf5/src/H5Pdxpl.c\00", align 1
@H5E_PLIST_g = external global i64, align 8
@.str.9 = private unnamed_addr constant [37 x i8] c"unable to create data transform info\00", align 1
@H5E_CANTCREATE_g = external global i64, align 8
@__func__.H5P__dxfr_xform_dec = private unnamed_addr constant [20 x i8] c"H5P__dxfr_xform_dec\00", align 1

; Function Attrs: nounwind uwtable
define internal i32 @H5P__dxfr_xform_dec(ptr noundef %0, ptr noundef %1) #0 {
  %3 = alloca ptr, align 8
  %4 = alloca ptr, align 8
  %5 = alloca ptr, align 8
  %6 = alloca i64, align 8
  %7 = alloca ptr, align 8
  %8 = alloca i32, align 4
  %9 = alloca i64, align 8
  %10 = alloca i32, align 4
  %11 = alloca i8, align 1
  %12 = alloca i64, align 8
  store ptr %0, ptr %3, align 8
  store ptr %1, ptr %4, align 8
  %13 = load ptr, ptr %4, align 8
  store ptr %13, ptr %5, align 8
  %14 = load ptr, ptr %3, align 8
  store ptr %14, ptr %7, align 8
  store i32 0, ptr %10, align 4
  store i8 0, ptr %11, align 1
  %15 = load ptr, ptr %7, align 8
  %16 = load ptr, ptr %15, align 8
  %17 = getelementptr inbounds i8, ptr %16, i32 1
  store ptr %17, ptr %15, align 8
  %18 = load i8, ptr %16, align 1
  %19 = zext i8 %18 to i32
  store i32 %19, ptr %8, align 4
  br label %20

20:                                               ; preds = %2
  store i64 0, ptr %9, align 8
  %21 = load i32, ptr %8, align 4
  %22 = load ptr, ptr %7, align 8
  %23 = load ptr, ptr %22, align 8
  %24 = zext i32 %21 to i64
  %25 = getelementptr inbounds i8, ptr %23, i64 %24
  store ptr %25, ptr %22, align 8
  store i64 0, ptr %12, align 8
  br label %26

26:                                               ; preds = %40, %20
  %27 = load i64, ptr %12, align 8
  %28 = load i32, ptr %8, align 4
  %29 = zext i32 %28 to i64
  %30 = icmp ult i64 %27, %29
  br i1 %30, label %31, label %43

31:                                               ; preds = %26
  %32 = load i64, ptr %9, align 8
  %33 = shl i64 %32, 8
  %34 = load ptr, ptr %7, align 8
  %35 = load ptr, ptr %34, align 8
  %36 = getelementptr inbounds i8, ptr %35, i32 -1
  store ptr %36, ptr %34, align 8
  %37 = load i8, ptr %36, align 1
  %38 = zext i8 %37 to i64
  %39 = or i64 %33, %38
  store i64 %39, ptr %9, align 8
  br label %40

40:                                               ; preds = %31
  %41 = load i64, ptr %12, align 8
  %42 = add i64 %41, 1
  store i64 %42, ptr %12, align 8
  br label %26

43:                                               ; preds = %26
  %44 = load i32, ptr %8, align 4
  %45 = load ptr, ptr %7, align 8
  %46 = load ptr, ptr %45, align 8
  %47 = zext i32 %44 to i64
  %48 = getelementptr inbounds i8, ptr %46, i64 %47
  store ptr %48, ptr %45, align 8
  br label %49

49:                                               ; preds = %43
  %50 = load i64, ptr %9, align 8
  store i64 %50, ptr %6, align 8
  %51 = load i64, ptr %6, align 8
  %52 = icmp ne i64 0, %51
  br i1 %52, label %53, label %79

53:                                               ; preds = %49
  %54 = load ptr, ptr %7, align 8
  %55 = load ptr, ptr %54, align 8
  %56 = call ptr @H5Z_xform_create(ptr noundef %55)
  %57 = load ptr, ptr %5, align 8
  store ptr %56, ptr %57, align 8
  %58 = icmp eq ptr null, %56
  br i1 %58, label %59, label %74

59:                                               ; preds = %53
  br label %60

60:                                               ; preds = %59
  br label %61

61:                                               ; preds = %60
  br label %62

62:                                               ; preds = %61
  %63 = load i64, ptr @H5E_PLIST_g, align 8
  %64 = load i64, ptr @H5E_CANTCREATE_g, align 8
  %65 = call i32 (ptr, ptr, i32, i64, i64, ptr, ...) @H5E_printf_stack(ptr noundef @.str.1, ptr noundef @__func__.H5P__dxfr_xform_dec, i32 noundef 809, i64 noundef %63, i64 noundef %64, ptr noundef @.str.9)
  br label %66

66:                                               ; preds = %62
  store i8 1, ptr %11, align 1
  %67 = load i8, ptr %11, align 1
  %68 = trunc i8 %67 to i1
  %69 = zext i1 %68 to i8
  store i8 %69, ptr %11, align 1
  br label %70

70:                                               ; preds = %66
  br label %71

71:                                               ; preds = %70
  store i32 -1, ptr %10, align 4
  br label %82

72:                                               ; No predecessors!
  br label %73

73:                                               ; preds = %72
  br label %74

74:                                               ; preds = %73, %53
  %75 = load i64, ptr %6, align 8
  %76 = load ptr, ptr %7, align 8
  %77 = load ptr, ptr %76, align 8
  %78 = getelementptr inbounds i8, ptr %77, i64 %75
  store ptr %78, ptr %76, align 8
  br label %81

79:                                               ; preds = %49
  %80 = load ptr, ptr %5, align 8
  store ptr null, ptr %80, align 8
  br label %81

81:                                               ; preds = %79, %74
  br label %82

82:                                               ; preds = %81, %71
  %83 = load i32, ptr %10, align 4
  ret i32 %83
}