; Function Attrs: nounwind uwtable
define internal range(i32 -1, 1) i32 @H5P__dxfr_xform_dec(ptr nocapture noundef %0, ptr nocapture noundef writeonly %1) #0 {
  %3 = load ptr, ptr %0, align 8
  %4 = getelementptr inbounds i8, ptr %3, i64 1
  store ptr %4, ptr %0, align 8
  %5 = load i8, ptr %3, align 1
  %6 = zext i8 %5 to i64
  %7 = getelementptr inbounds i8, ptr %4, i64 %6
  %.not25 = icmp eq i8 %5, 0
  br i1 %.not25, label %._crit_edge.thread, label %.lr.ph

._crit_edge.thread:                               ; preds = %2
  %8 = getelementptr inbounds i8, ptr %7, i64 %6
  store ptr %8, ptr %0, align 8
  br label %27

.lr.ph:                                           ; preds = %2, %.lr.ph
  %9 = phi ptr [ %11, %.lr.ph ], [ %7, %2 ]
  %.024 = phi i64 [ %15, %.lr.ph ], [ 0, %2 ]
  %.02123 = phi i64 [ %14, %.lr.ph ], [ 0, %2 ]
  %10 = shl i64 %.02123, 8
  %11 = getelementptr inbounds i8, ptr %9, i64 -1
  store ptr %11, ptr %0, align 8
  %12 = load i8, ptr %11, align 1
  %13 = zext i8 %12 to i64
  %14 = or disjoint i64 %10, %13
  %15 = add nuw nsw i64 %.024, 1
  %exitcond.not = icmp eq i64 %15, %6
  br i1 %exitcond.not, label %._crit_edge, label %.lr.ph

._crit_edge:                                      ; preds = %.lr.ph
  %16 = getelementptr inbounds i8, ptr %11, i64 %6
  store ptr %16, ptr %0, align 8
  %.not = icmp eq i64 %14, 0
  br i1 %.not, label %27, label %17

17:                                               ; preds = %._crit_edge
  %18 = tail call ptr @H5Z_xform_create(ptr noundef nonnull %16) #8
  store ptr %18, ptr %1, align 8
  %19 = icmp eq ptr %18, null
  br i1 %19, label %20, label %24

20:                                               ; preds = %17
  %21 = load i64, ptr @H5E_PLIST_g, align 8
  %22 = load i64, ptr @H5E_CANTCREATE_g, align 8
  %23 = tail call i32 (ptr, ptr, i32, i64, i64, ptr, ...) @H5E_printf_stack(ptr noundef nonnull @.str.1, ptr noundef nonnull @__func__.H5P__dxfr_xform_dec, i32 noundef 809, i64 noundef %21, i64 noundef %22, ptr noundef nonnull @.str.9) #8
  br label %28

24:                                               ; preds = %17
  %25 = load ptr, ptr %0, align 8
  %26 = getelementptr inbounds i8, ptr %25, i64 %14
  store ptr %26, ptr %0, align 8
  br label %28

27:                                               ; preds = %._crit_edge.thread, %._crit_edge
  store ptr null, ptr %1, align 8
  br label %28

28:                                               ; preds = %24, %27, %20
  %.020 = phi i32 [ -1, %20 ], [ 0, %24 ], [ 0, %27 ]
  ret i32 %.020
}